target datalayout = "e-m:e-p270:32:32-p271:32:32-p272:64:64-i64:64-i128:128-f80:128-n8:16:32:64-S128"
target triple = "x86_64-pc-linux-gnu"

%struct.varattrib_1b = type { i8, [0 x i8] }
%struct.varattrib_1b_e = type { i8, i8, [0 x i8] }
%struct.anon = type { i32, [0 x i8] }

@.str.61 = private unnamed_addr constant [29 x i8] c"unsupported byval length: %d\00", align 1
@.str.62 = private unnamed_addr constant [41 x i8] c"../../../../src/include/access/tupmacs.h\00", align 1
@__func__.store_att_byval = private unnamed_addr constant [16 x i8] c"store_att_byval\00", align 1

; Function Attrs: inlinehint nounwind uwtable
define internal i32 @DatumGetInt32(i64 noundef %0) #2 {
  %2 = alloca i64, align 8
  store i64 %0, ptr %2, align 8
  %3 = load i64, ptr %2, align 8
  %4 = trunc i64 %3 to i32
  ret i32 %4
}

; Function Attrs: inlinehint nounwind uwtable
define internal signext i16 @DatumGetInt16(i64 noundef %0) #2 {
  %2 = alloca i64, align 8
  store i64 %0, ptr %2, align 8
  %3 = load i64, ptr %2, align 8
  %4 = trunc i64 %3 to i16
  ret i16 %4
}

; Function Attrs: inlinehint nounwind uwtable
define internal signext i8 @DatumGetChar(i64 noundef %0) #2 {
  %2 = alloca i64, align 8
  store i64 %0, ptr %2, align 8
  %3 = load i64, ptr %2, align 8
  %4 = trunc i64 %3 to i8
  ret i8 %4
}

; Function Attrs: inlinehint nounwind uwtable
define internal ptr @DatumGetPointer(i64 noundef %0) #2 {
  %2 = alloca i64, align 8
  store i64 %0, ptr %2, align 8
  %3 = load i64, ptr %2, align 8
  %4 = inttoptr i64 %3 to ptr
  ret ptr %4
}

; Function Attrs: inlinehint nounwind uwtable
define internal void @store_att_byval(ptr noundef %0, i64 noundef %1, i32 noundef %2) #2 {
  %4 = alloca ptr, align 8
  %5 = alloca i64, align 8
  %6 = alloca i32, align 4
  store ptr %0, ptr %4, align 8
  store i64 %1, ptr %5, align 8
  store i32 %2, ptr %6, align 4
  %7 = load i32, ptr %6, align 4
  switch i32 %7, label %23 [
    i32 1, label %8
    i32 2, label %12
    i32 4, label %16
    i32 8, label %20
  ]

8:                                                ; preds = %3
  %9 = load i64, ptr %5, align 8
  %10 = call signext i8 @DatumGetChar(i64 noundef %9)
  %11 = load ptr, ptr %4, align 8
  store i8 %10, ptr %11, align 1
  br label %34

12:                                               ; preds = %3
  %13 = load i64, ptr %5, align 8
  %14 = call signext i16 @DatumGetInt16(i64 noundef %13)
  %15 = load ptr, ptr %4, align 8
  store i16 %14, ptr %15, align 2
  br label %34

16:                                               ; preds = %3
  %17 = load i64, ptr %5, align 8
  %18 = call i32 @DatumGetInt32(i64 noundef %17)
  %19 = load ptr, ptr %4, align 8
  store i32 %18, ptr %19, align 4
  br label %34

20:                                               ; preds = %3
  %21 = load i64, ptr %5, align 8
  %22 = load ptr, ptr %4, align 8
  store i64 %21, ptr %22, align 8
  br label %34

23:                                               ; preds = %3
  br label %24

24:                                               ; preds = %23
  br i1 true, label %25, label %27

25:                                               ; preds = %24
  %26 = call zeroext i1 @errstart_cold(i32 noundef 21, ptr noundef null) #13
  br i1 %26, label %29, label %32

27:                                               ; preds = %24
  %28 = call zeroext i1 @errstart(i32 noundef 21, ptr noundef null)
  br i1 %28, label %29, label %32

29:                                               ; preds = %27, %25
  %30 = load i32, ptr %6, align 4
  %31 = call i32 (ptr, ...) @errmsg_internal(ptr noundef @.str.61, i32 noundef %30)
  call void @errfinish(ptr noundef @.str.62, i32 noundef 230, ptr noundef @__func__.store_att_byval)
  br label %32

32:                                               ; preds = %29, %27, %25
  unreachable

33:                                               ; No predecessors!
  br label %34

34:                                               ; preds = %33, %20, %16, %12, %8
  ret void
}

; Function Attrs: nounwind uwtable
define internal i32 @ArrayCastAndSet(i64 noundef %0, i32 noundef %1, i1 noundef zeroext %2, i8 noundef signext %3, ptr noundef %4) #0 {
  %6 = alloca i64, align 8
  %7 = alloca i32, align 4
  %8 = alloca i8, align 1
  %9 = alloca i8, align 1
  %10 = alloca ptr, align 8
  %11 = alloca i32, align 4
  store i64 %0, ptr %6, align 8
  store i32 %1, ptr %7, align 4
  %12 = zext i1 %2 to i8
  store i8 %12, ptr %8, align 1
  store i8 %3, ptr %9, align 1
  store ptr %4, ptr %10, align 8
  call void @llvm.lifetime.start.p0(i64 4, ptr %11) #11
  %13 = load i32, ptr %7, align 4
  %14 = icmp sgt i32 %13, 0
  br i1 %14, label %15, label %65

15:                                               ; preds = %5
  %16 = load i8, ptr %8, align 1, !range !4, !noundef !5
  %17 = trunc i8 %16 to i1
  br i1 %17, label %18, label %22

18:                                               ; preds = %15
  %19 = load ptr, ptr %10, align 8
  %20 = load i64, ptr %6, align 8
  %21 = load i32, ptr %7, align 4
  call void @store_att_byval(ptr noundef %19, i64 noundef %20, i32 noundef %21)
  br label %28

22:                                               ; preds = %15
  %23 = load ptr, ptr %10, align 8
  %24 = load i64, ptr %6, align 8
  %25 = call ptr @DatumGetPointer(i64 noundef %24)
  %26 = load i32, ptr %7, align 4
  %27 = sext i32 %26 to i64
  call void @llvm.memmove.p0.p0.i64(ptr align 1 %23, ptr align 1 %25, i64 %27, i1 false)
  br label %28

28:                                               ; preds = %22, %18
  %29 = load i8, ptr %9, align 1
  %30 = sext i8 %29 to i32
  %31 = icmp eq i32 %30, 105
  br i1 %31, label %32, label %37

32:                                               ; preds = %28
  %33 = load i32, ptr %7, align 4
  %34 = sext i32 %33 to i64
  %35 = add i64 %34, 3
  %36 = and i64 %35, -4
  br label %62

37:                                               ; preds = %28
  %38 = load i8, ptr %9, align 1
  %39 = sext i8 %38 to i32
  %40 = icmp eq i32 %39, 99
  br i1 %40, label %41, label %44

41:                                               ; preds = %37
  %42 = load i32, ptr %7, align 4
  %43 = sext i32 %42 to i64
  br label %60

44:                                               ; preds = %37
  %45 = load i8, ptr %9, align 1
  %46 = sext i8 %45 to i32
  %47 = icmp eq i32 %46, 100
  br i1 %47, label %48, label %53

48:                                               ; preds = %44
  %49 = load i32, ptr %7, align 4
  %50 = sext i32 %49 to i64
  %51 = add i64 %50, 7
  %52 = and i64 %51, -8
  br label %58

53:                                               ; preds = %44
  %54 = load i32, ptr %7, align 4
  %55 = sext i32 %54 to i64
  %56 = add i64 %55, 1
  %57 = and i64 %56, -2
  br label %58

58:                                               ; preds = %53, %48
  %59 = phi i64 [ %52, %48 ], [ %57, %53 ]
  br label %60

60:                                               ; preds = %58, %41
  %61 = phi i64 [ %43, %41 ], [ %59, %58 ]
  br label %62

62:                                               ; preds = %60, %32
  %63 = phi i64 [ %36, %32 ], [ %61, %60 ]
  %64 = trunc i64 %63 to i32
  store i32 %64, ptr %11, align 4
  br label %193

65:                                               ; preds = %5
  %66 = load i32, ptr %7, align 4
  %67 = icmp sgt i32 %66, 0
  br i1 %67, label %68, label %72

68:                                               ; preds = %65
  %69 = load i32, ptr %7, align 4
  %70 = add i32 0, %69
  %71 = sext i32 %70 to i64
  br label %149

72:                                               ; preds = %65
  %73 = load i32, ptr %7, align 4
  %74 = icmp eq i32 %73, -1
  br i1 %74, label %75, label %141

75:                                               ; preds = %72
  %76 = load i64, ptr %6, align 8
  %77 = call ptr @DatumGetPointer(i64 noundef %76)
  %78 = getelementptr inbounds nuw %struct.varattrib_1b, ptr %77, i32 0, i32 0
  %79 = load i8, ptr %78, align 1
  %80 = zext i8 %79 to i32
  %81 = icmp eq i32 %80, 1
  br i1 %81, label %82, label %112

82:                                               ; preds = %75
  %83 = load i64, ptr %6, align 8
  %84 = call ptr @DatumGetPointer(i64 noundef %83)
  %85 = getelementptr inbounds nuw %struct.varattrib_1b_e, ptr %84, i32 0, i32 1
  %86 = load i8, ptr %85, align 1
  %87 = zext i8 %86 to i32
  %88 = icmp eq i32 %87, 1
  br i1 %88, label %89, label %90

89:                                               ; preds = %82
  br label %109

90:                                               ; preds = %82
  %91 = load i64, ptr %6, align 8
  %92 = call ptr @DatumGetPointer(i64 noundef %91)
  %93 = getelementptr inbounds nuw %struct.varattrib_1b_e, ptr %92, i32 0, i32 1
  %94 = load i8, ptr %93, align 1
  %95 = zext i8 %94 to i32
  %96 = and i32 %95, -2
  %97 = icmp eq i32 %96, 2
  br i1 %97, label %98, label %99

98:                                               ; preds = %90
  br label %107

99:                                               ; preds = %90
  %100 = load i64, ptr %6, align 8
  %101 = call ptr @DatumGetPointer(i64 noundef %100)
  %102 = getelementptr inbounds nuw %struct.varattrib_1b_e, ptr %101, i32 0, i32 1
  %103 = load i8, ptr %102, align 1
  %104 = zext i8 %103 to i32
  %105 = icmp eq i32 %104, 18
  %106 = select i1 %105, i64 16, i64 0
  br label %107

107:                                              ; preds = %99, %98
  %108 = phi i64 [ 8, %98 ], [ %106, %99 ]
  br label %109

109:                                              ; preds = %107, %89
  %110 = phi i64 [ 8, %89 ], [ %108, %107 ]
  %111 = add i64 2, %110
  br label %138

112:                                              ; preds = %75
  %113 = load i64, ptr %6, align 8
  %114 = call ptr @DatumGetPointer(i64 noundef %113)
  %115 = getelementptr inbounds nuw %struct.varattrib_1b, ptr %114, i32 0, i32 0
  %116 = load i8, ptr %115, align 1
  %117 = zext i8 %116 to i32
  %118 = and i32 %117, 1
  %119 = icmp eq i32 %118, 1
  br i1 %119, label %120, label %128

120:                                              ; preds = %112
  %121 = load i64, ptr %6, align 8
  %122 = call ptr @DatumGetPointer(i64 noundef %121)
  %123 = getelementptr inbounds nuw %struct.varattrib_1b, ptr %122, i32 0, i32 0
  %124 = load i8, ptr %123, align 1
  %125 = zext i8 %124 to i32
  %126 = ashr i32 %125, 1
  %127 = and i32 %126, 127
  br label %135

128:                                              ; preds = %112
  %129 = load i64, ptr %6, align 8
  %130 = call ptr @DatumGetPointer(i64 noundef %129)
  %131 = getelementptr inbounds nuw %struct.anon, ptr %130, i32 0, i32 0
  %132 = load i32, ptr %131, align 4
  %133 = lshr i32 %132, 2
  %134 = and i32 %133, 1073741823
  br label %135

135:                                              ; preds = %128, %120
  %136 = phi i32 [ %127, %120 ], [ %134, %128 ]
  %137 = zext i32 %136 to i64
  br label %138

138:                                              ; preds = %135, %109
  %139 = phi i64 [ %111, %109 ], [ %137, %135 ]
  %140 = add i64 0, %139
  br label %147

141:                                              ; preds = %72
  %142 = load i64, ptr %6, align 8
  %143 = call ptr @DatumGetPointer(i64 noundef %142)
  %144 = call i64 @strlen(ptr noundef %143) #12
  %145 = add i64 %144, 1
  %146 = add i64 0, %145
  br label %147

147:                                              ; preds = %141, %138
  %148 = phi i64 [ %140, %138 ], [ %146, %141 ]
  br label %149

149:                                              ; preds = %147, %68
  %150 = phi i64 [ %71, %68 ], [ %148, %147 ]
  %151 = trunc i64 %150 to i32
  store i32 %151, ptr %11, align 4
  %152 = load ptr, ptr %10, align 8
  %153 = load i64, ptr %6, align 8
  %154 = call ptr @DatumGetPointer(i64 noundef %153)
  %155 = load i32, ptr %11, align 4
  %156 = sext i32 %155 to i64
  call void @llvm.memmove.p0.p0.i64(ptr align 1 %152, ptr align 1 %154, i64 %156, i1 false)
  %157 = load i8, ptr %9, align 1
  %158 = sext i8 %157 to i32
  %159 = icmp eq i32 %158, 105
  br i1 %159, label %160, label %165

160:                                              ; preds = %149
  %161 = load i32, ptr %11, align 4
  %162 = sext i32 %161 to i64
  %163 = add i64 %162, 3
  %164 = and i64 %163, -4
  br label %190

165:                                              ; preds = %149
  %166 = load i8, ptr %9, align 1
  %167 = sext i8 %166 to i32
  %168 = icmp eq i32 %167, 99
  br i1 %168, label %169, label %172

169:                                              ; preds = %165
  %170 = load i32, ptr %11, align 4
  %171 = sext i32 %170 to i64
  br label %188

172:                                              ; preds = %165
  %173 = load i8, ptr %9, align 1
  %174 = sext i8 %173 to i32
  %175 = icmp eq i32 %174, 100
  br i1 %175, label %176, label %181

176:                                              ; preds = %172
  %177 = load i32, ptr %11, align 4
  %178 = sext i32 %177 to i64
  %179 = add i64 %178, 7
  %180 = and i64 %179, -8
  br label %186

181:                                              ; preds = %172
  %182 = load i32, ptr %11, align 4
  %183 = sext i32 %182 to i64
  %184 = add i64 %183, 1
  %185 = and i64 %184, -2
  br label %186

186:                                              ; preds = %181, %176
  %187 = phi i64 [ %180, %176 ], [ %185, %181 ]
  br label %188

188:                                              ; preds = %186, %169
  %189 = phi i64 [ %171, %169 ], [ %187, %186 ]
  br label %190

190:                                              ; preds = %188, %160
  %191 = phi i64 [ %164, %160 ], [ %189, %188 ]
  %192 = trunc i64 %191 to i32
  store i32 %192, ptr %11, align 4
  br label %193

193:                                              ; preds = %190, %62
  %194 = load i32, ptr %11, align 4
  call void @llvm.lifetime.end.p0(i64 4, ptr %11) #11
  ret i32 %194
}