; Function Attrs: nounwind uwtable
define internal fastcc i32 @ArrayCastAndSet(i64 noundef %0, i32 noundef %1, i1 noundef zeroext %2, i8 noundef signext %3, ptr noundef writeonly captures(none) %4) unnamed_addr #0 {
  %6 = icmp sgt i32 %1, 0
  br i1 %6, label %7, label %28

7:                                                ; preds = %5
  br i1 %2, label %8, label %19

8:                                                ; preds = %7
  switch i32 %1, label %16 [
    i32 1, label %9
    i32 2, label %11
    i32 4, label %13
    i32 8, label %15
  ]

9:                                                ; preds = %8
  %10 = trunc i64 %0 to i8
  store i8 %10, ptr %4, align 1
  br label %store_att_byval.exit

11:                                               ; preds = %8
  %12 = trunc i64 %0 to i16
  store i16 %12, ptr %4, align 2
  br label %store_att_byval.exit

13:                                               ; preds = %8
  %14 = trunc i64 %0 to i32
  store i32 %14, ptr %4, align 4
  br label %store_att_byval.exit

15:                                               ; preds = %8
  store i64 %0, ptr %4, align 8
  br label %store_att_byval.exit

16:                                               ; preds = %8
  %17 = tail call zeroext i1 @errstart_cold(i32 noundef 21, ptr noundef null) #20
  tail call void @llvm.assume(i1 %17)
  %18 = tail call i32 (ptr, ...) @errmsg_internal(ptr noundef nonnull @.str.61, i32 noundef range(i32 1, -2147483648) %1) #18
  tail call void @errfinish(ptr noundef nonnull @.str.62, i32 noundef 230, ptr noundef nonnull @__func__.store_att_byval) #18
  unreachable

19:                                               ; preds = %7
  %20 = inttoptr i64 %0 to ptr
  %21 = zext nneg i32 %1 to i64
  tail call void @llvm.memmove.p0.p0.i64(ptr align 1 %4, ptr align 1 %20, i64 %21, i1 false)
  br label %store_att_byval.exit

store_att_byval.exit:                             ; preds = %15, %13, %11, %9, %19
  switch i8 %3, label %26 [
    i8 105, label %22
    i8 99, label %69
    i8 100, label %24
  ]

22:                                               ; preds = %store_att_byval.exit
  %narrow40 = add nuw i32 %1, 3
  %23 = and i32 %narrow40, -4
  br label %69

24:                                               ; preds = %store_att_byval.exit
  %narrow39 = add nuw i32 %1, 7
  %25 = and i32 %narrow39, -8
  br label %69

26:                                               ; preds = %store_att_byval.exit
  %narrow = add nuw i32 %1, 1
  %27 = and i32 %narrow, -2
  br label %69

28:                                               ; preds = %5
  %29 = icmp eq i32 %1, -1
  %30 = inttoptr i64 %0 to ptr
  br i1 %29, label %31, label %51

31:                                               ; preds = %28
  %32 = load i8, ptr %30, align 1
  %33 = icmp eq i8 %32, 1
  br i1 %33, label %34, label %40

34:                                               ; preds = %31
  %35 = getelementptr inbounds nuw i8, ptr %30, i64 1
  %36 = load i8, ptr %35, align 1
  %.off = add i8 %36, -1
  %switch = icmp ult i8 %.off, 3
  br i1 %switch, label %54, label %37

37:                                               ; preds = %34
  %38 = icmp eq i8 %36, 18
  %39 = select i1 %38, i64 18, i64 2
  br label %54

40:                                               ; preds = %31
  %41 = and i8 %32, 1
  %.not = icmp eq i8 %41, 0
  br i1 %.not, label %45, label %42

42:                                               ; preds = %40
  %43 = lshr i8 %32, 1
  %44 = zext nneg i8 %43 to i32
  br label %48

45:                                               ; preds = %40
  %46 = load i32, ptr %30, align 4
  %47 = lshr i32 %46, 2
  br label %48

48:                                               ; preds = %45, %42
  %49 = phi i32 [ %44, %42 ], [ %47, %45 ]
  %50 = zext nneg i32 %49 to i64
  br label %54

51:                                               ; preds = %28
  %52 = tail call i64 @strlen(ptr noundef nonnull dereferenceable(1) %30) #19
  %53 = add i64 %52, 1
  br label %54

54:                                               ; preds = %34, %48, %37, %51
  %55 = phi i64 [ 10, %34 ], [ %50, %48 ], [ %39, %37 ], [ %53, %51 ]
  %sext = shl i64 %55, 32
  %56 = ashr exact i64 %sext, 32
  tail call void @llvm.memmove.p0.p0.i64(ptr align 1 %4, ptr nonnull align 1 %30, i64 %56, i1 false)
  switch i8 %3, label %63 [
    i8 105, label %57
    i8 99, label %66
    i8 100, label %60
  ]

57:                                               ; preds = %54
  %58 = add nsw i64 %56, 3
  %59 = and i64 %58, -4
  br label %66

60:                                               ; preds = %54
  %61 = add nsw i64 %56, 7
  %62 = and i64 %61, -8
  br label %66

63:                                               ; preds = %54
  %64 = add nsw i64 %56, 1
  %65 = and i64 %64, -2
  br label %66

66:                                               ; preds = %54, %63, %60, %57
  %67 = phi i64 [ %59, %57 ], [ %62, %60 ], [ %65, %63 ], [ %56, %54 ]
  %68 = trunc i64 %67 to i32
  br label %69

69:                                               ; preds = %22, %24, %26, %store_att_byval.exit, %66
  %.0 = phi i32 [ %68, %66 ], [ %23, %22 ], [ %25, %24 ], [ %27, %26 ], [ %1, %store_att_byval.exit ]
  ret i32 %.0
}